target datalayout = "e-m:e-p270:32:32-p271:32:32-p272:64:64-i64:64-i128:128-f80:128-n8:16:32:64-S128"
target triple = "x86_64-pc-linux-gnu"

@hf_GIAS_DeliveryManifest_package_name = internal global i32 0, align 4
@hf_GIAS_DeliveryManifest_elements_loop = internal global i32 0, align 4
@hf_GIAS_PackageElement_files_loop = internal global i32 0, align 4
@hf_GIAS_PackageElement_files = internal global i32 0, align 4
@ett_giop_struct = internal global i32 0, align 4
@ett_giop_sequence = internal global i32 0, align 4
@boundary = internal global i32 12, align 4
@.str.847 = private unnamed_addr constant [40 x i8] c"sequence GIAS_DeliveryManifest_elements\00", align 1
@.str.848 = private unnamed_addr constant [27 x i8] c"struct GIAS_PackageElement\00", align 1
@.str.849 = private unnamed_addr constant [35 x i8] c"sequence GIAS_PackageElement_files\00", align 1

; Function Attrs: null_pointer_is_valid sspstrong uwtable
define internal void @decode_GIAS_PackageElement_st(ptr noundef %0, ptr noundef %1, ptr noundef %2, ptr noundef %3, ptr noundef %4, ptr noundef %5, ptr noundef %6, i1 noundef zeroext %7) #0 {
  %9 = alloca ptr, align 8
  %10 = alloca ptr, align 8
  %11 = alloca ptr, align 8
  %12 = alloca ptr, align 8
  %13 = alloca ptr, align 8
  %14 = alloca ptr, align 8
  %15 = alloca ptr, align 8
  %16 = alloca i8, align 1
  %17 = alloca i32, align 4
  %18 = alloca i32, align 4
  %19 = alloca ptr, align 8
  store ptr %0, ptr %9, align 8
  store ptr %1, ptr %10, align 8
  store ptr %2, ptr %11, align 8
  store ptr %3, ptr %12, align 8
  store ptr %4, ptr %13, align 8
  store ptr %5, ptr %14, align 8
  store ptr %6, ptr %15, align 8
  %20 = zext i1 %7 to i8
  store i8 %20, ptr %16, align 1
  call void @llvm.lifetime.start.p0(i64 4, ptr %17) #6
  call void @llvm.lifetime.start.p0(i64 4, ptr %18) #6
  %21 = load ptr, ptr %9, align 8
  %22 = load ptr, ptr %10, align 8
  %23 = load ptr, ptr %11, align 8
  %24 = load ptr, ptr %13, align 8
  %25 = load i8, ptr %16, align 1, !range !6, !noundef !7
  %26 = trunc i8 %25 to i1
  %27 = load i32, ptr @boundary, align 4
  call void @get_CDR_object(ptr noundef %21, ptr noundef %22, ptr noundef %23, ptr noundef %24, i1 noundef zeroext %26, i32 noundef %27)
  %28 = load ptr, ptr %9, align 8
  %29 = load ptr, ptr %13, align 8
  %30 = load i8, ptr %16, align 1, !range !6, !noundef !7
  %31 = trunc i8 %30 to i1
  %32 = load i32, ptr @boundary, align 4
  %33 = call i32 @get_CDR_ulong(ptr noundef %28, ptr noundef %29, i1 noundef zeroext %31, i32 noundef %32)
  store i32 %33, ptr %17, align 4
  %34 = load ptr, ptr %11, align 8
  %35 = load i32, ptr @hf_GIAS_PackageElement_files_loop, align 4
  %36 = load ptr, ptr %9, align 8
  %37 = load ptr, ptr %13, align 8
  %38 = load i32, ptr %37, align 4
  %39 = sub i32 %38, 4
  %40 = load i32, ptr %17, align 4
  %41 = call ptr @proto_tree_add_uint(ptr noundef %34, i32 noundef %35, ptr noundef %36, i32 noundef %39, i32 noundef 4, i32 noundef %40)
  call void @llvm.lifetime.start.p0(i64 8, ptr %19) #6
  %42 = load ptr, ptr %11, align 8
  store ptr %42, ptr %19, align 8
  %43 = load ptr, ptr %11, align 8
  %44 = load ptr, ptr %9, align 8
  %45 = load ptr, ptr %13, align 8
  %46 = load i32, ptr %45, align 4
  %47 = load i32, ptr @ett_giop_sequence, align 4
  %48 = call ptr @proto_tree_add_subtree(ptr noundef %43, ptr noundef %44, i32 noundef %46, i32 noundef -1, i32 noundef %47, ptr noundef null, ptr noundef @.str.849)
  store ptr %48, ptr %11, align 8
  store i32 0, ptr %18, align 4
  br label %49

49:                                               ; preds = %61, %8
  %50 = load i32, ptr %18, align 4
  %51 = load i32, ptr %17, align 4
  %52 = icmp ult i32 %50, %51
  br i1 %52, label %53, label %64

53:                                               ; preds = %49
  %54 = load ptr, ptr %11, align 8
  %55 = load ptr, ptr %9, align 8
  %56 = load ptr, ptr %13, align 8
  %57 = load i8, ptr %16, align 1, !range !6, !noundef !7
  %58 = trunc i8 %57 to i1
  %59 = load i32, ptr @boundary, align 4
  %60 = load i32, ptr @hf_GIAS_PackageElement_files, align 4
  call void @giop_add_CDR_string(ptr noundef %54, ptr noundef %55, ptr noundef %56, i1 noundef zeroext %58, i32 noundef %59, i32 noundef %60)
  br label %61

61:                                               ; preds = %53
  %62 = load i32, ptr %18, align 4
  %63 = add i32 %62, 1
  store i32 %63, ptr %18, align 4
  br label %49, !llvm.loop !80

64:                                               ; preds = %49
  %65 = load ptr, ptr %19, align 8
  store ptr %65, ptr %11, align 8
  call void @llvm.lifetime.end.p0(i64 8, ptr %19) #6
  call void @llvm.lifetime.end.p0(i64 4, ptr %18) #6
  call void @llvm.lifetime.end.p0(i64 4, ptr %17) #6
  ret void
}

; Function Attrs: null_pointer_is_valid sspstrong uwtable
define internal void @decode_GIAS_DeliveryManifest_st(ptr noundef %0, ptr noundef %1, ptr noundef %2, ptr noundef %3, ptr noundef %4, ptr noundef %5, ptr noundef %6, i1 noundef zeroext %7) #0 {
  %9 = alloca ptr, align 8
  %10 = alloca ptr, align 8
  %11 = alloca ptr, align 8
  %12 = alloca ptr, align 8
  %13 = alloca ptr, align 8
  %14 = alloca ptr, align 8
  %15 = alloca ptr, align 8
  %16 = alloca i8, align 1
  %17 = alloca i32, align 4
  %18 = alloca i32, align 4
  %19 = alloca ptr, align 8
  %20 = alloca ptr, align 8
  store ptr %0, ptr %9, align 8
  store ptr %1, ptr %10, align 8
  store ptr %2, ptr %11, align 8
  store ptr %3, ptr %12, align 8
  store ptr %4, ptr %13, align 8
  store ptr %5, ptr %14, align 8
  store ptr %6, ptr %15, align 8
  %21 = zext i1 %7 to i8
  store i8 %21, ptr %16, align 1
  call void @llvm.lifetime.start.p0(i64 4, ptr %17) #6
  call void @llvm.lifetime.start.p0(i64 4, ptr %18) #6
  %22 = load ptr, ptr %11, align 8
  %23 = load ptr, ptr %9, align 8
  %24 = load ptr, ptr %13, align 8
  %25 = load i8, ptr %16, align 1, !range !6, !noundef !7
  %26 = trunc i8 %25 to i1
  %27 = load i32, ptr @boundary, align 4
  %28 = load i32, ptr @hf_GIAS_DeliveryManifest_package_name, align 4
  call void @giop_add_CDR_string(ptr noundef %22, ptr noundef %23, ptr noundef %24, i1 noundef zeroext %26, i32 noundef %27, i32 noundef %28)
  %29 = load ptr, ptr %9, align 8
  %30 = load ptr, ptr %13, align 8
  %31 = load i8, ptr %16, align 1, !range !6, !noundef !7
  %32 = trunc i8 %31 to i1
  %33 = load i32, ptr @boundary, align 4
  %34 = call i32 @get_CDR_ulong(ptr noundef %29, ptr noundef %30, i1 noundef zeroext %32, i32 noundef %33)
  store i32 %34, ptr %17, align 4
  %35 = load ptr, ptr %11, align 8
  %36 = load i32, ptr @hf_GIAS_DeliveryManifest_elements_loop, align 4
  %37 = load ptr, ptr %9, align 8
  %38 = load ptr, ptr %13, align 8
  %39 = load i32, ptr %38, align 4
  %40 = sub i32 %39, 4
  %41 = load i32, ptr %17, align 4
  %42 = call ptr @proto_tree_add_uint(ptr noundef %35, i32 noundef %36, ptr noundef %37, i32 noundef %40, i32 noundef 4, i32 noundef %41)
  call void @llvm.lifetime.start.p0(i64 8, ptr %19) #6
  %43 = load ptr, ptr %11, align 8
  store ptr %43, ptr %19, align 8
  %44 = load ptr, ptr %11, align 8
  %45 = load ptr, ptr %9, align 8
  %46 = load ptr, ptr %13, align 8
  %47 = load i32, ptr %46, align 4
  %48 = load i32, ptr @ett_giop_sequence, align 4
  %49 = call ptr @proto_tree_add_subtree(ptr noundef %44, ptr noundef %45, i32 noundef %47, i32 noundef -1, i32 noundef %48, ptr noundef null, ptr noundef @.str.847)
  store ptr %49, ptr %11, align 8
  store i32 0, ptr %18, align 4
  br label %50

50:                                               ; preds = %70, %8
  %51 = load i32, ptr %18, align 4
  %52 = load i32, ptr %17, align 4
  %53 = icmp ult i32 %51, %52
  br i1 %53, label %54, label %73

54:                                               ; preds = %50
  call void @llvm.lifetime.start.p0(i64 8, ptr %20) #6
  %55 = load ptr, ptr %11, align 8
  %56 = load ptr, ptr %9, align 8
  %57 = load ptr, ptr %13, align 8
  %58 = load i32, ptr %57, align 4
  %59 = load i32, ptr @ett_giop_struct, align 4
  %60 = call ptr @proto_tree_add_subtree(ptr noundef %55, ptr noundef %56, i32 noundef %58, i32 noundef -1, i32 noundef %59, ptr noundef null, ptr noundef @.str.848)
  store ptr %60, ptr %20, align 8
  %61 = load ptr, ptr %9, align 8
  %62 = load ptr, ptr %10, align 8
  %63 = load ptr, ptr %20, align 8
  %64 = load ptr, ptr %12, align 8
  %65 = load ptr, ptr %13, align 8
  %66 = load ptr, ptr %14, align 8
  %67 = load ptr, ptr %15, align 8
  %68 = load i8, ptr %16, align 1, !range !6, !noundef !7
  %69 = trunc i8 %68 to i1
  call void @decode_GIAS_PackageElement_st(ptr noundef %61, ptr noundef %62, ptr noundef %63, ptr noundef %64, ptr noundef %65, ptr noundef %66, ptr noundef %67, i1 noundef zeroext %69)
  call void @llvm.lifetime.end.p0(i64 8, ptr %20) #6
  br label %70

70:                                               ; preds = %54
  %71 = load i32, ptr %18, align 4
  %72 = add i32 %71, 1
  store i32 %72, ptr %18, align 4
  br label %50, !llvm.loop !79

73:                                               ; preds = %50
  %74 = load ptr, ptr %19, align 8
  store ptr %74, ptr %11, align 8
  call void @llvm.lifetime.end.p0(i64 8, ptr %19) #6
  call void @llvm.lifetime.end.p0(i64 4, ptr %18) #6
  call void @llvm.lifetime.end.p0(i64 4, ptr %17) #6
  ret void
}