; Function Attrs: null_pointer_is_valid sspstrong uwtable
define internal fastcc void @decode_GIAS_DeliveryManifest_st(ptr noundef %0, ptr noundef %1, ptr noundef %2, ptr noundef %3, i1 noundef zeroext %4) unnamed_addr #0 {
  %6 = load i32, ptr @hf_GIAS_DeliveryManifest_package_name, align 4
  tail call void @giop_add_CDR_string(ptr noundef %2, ptr noundef %0, ptr noundef %3, i1 noundef zeroext %4, i32 noundef 12, i32 noundef %6)
  %7 = tail call i32 @get_CDR_ulong(ptr noundef %0, ptr noundef %3, i1 noundef zeroext %4, i32 noundef 12)
  %8 = load i32, ptr @hf_GIAS_DeliveryManifest_elements_loop, align 4
  %9 = load i32, ptr %3, align 4
  %10 = add i32 %9, -4
  %11 = tail call ptr @proto_tree_add_uint(ptr noundef %2, i32 noundef %8, ptr noundef %0, i32 noundef %10, i32 noundef 4, i32 noundef %7)
  %12 = load i32, ptr %3, align 4
  %13 = load i32, ptr @ett_giop_sequence, align 4
  %14 = tail call ptr @proto_tree_add_subtree(ptr noundef %2, ptr noundef %0, i32 noundef %12, i32 noundef -1, i32 noundef %13, ptr noundef null, ptr noundef nonnull @.str.847)
  %.not = icmp eq i32 %7, 0
  br i1 %.not, label %._crit_edge, label %.lr.ph

.lr.ph:                                           ; preds = %5, %decode_GIAS_PackageElement_st.exit
  %.01 = phi i32 [ %28, %decode_GIAS_PackageElement_st.exit ], [ 0, %5 ]
  %15 = load i32, ptr %3, align 4
  %16 = load i32, ptr @ett_giop_struct, align 4
  %17 = tail call ptr @proto_tree_add_subtree(ptr noundef %14, ptr noundef %0, i32 noundef %15, i32 noundef -1, i32 noundef %16, ptr noundef null, ptr noundef nonnull @.str.848)
  tail call void @get_CDR_object(ptr noundef %0, ptr noundef %1, ptr noundef %17, ptr noundef %3, i1 noundef zeroext %4, i32 noundef 12)
  %18 = tail call i32 @get_CDR_ulong(ptr noundef %0, ptr noundef %3, i1 noundef zeroext %4, i32 noundef 12)
  %19 = load i32, ptr @hf_GIAS_PackageElement_files_loop, align 4
  %20 = load i32, ptr %3, align 4
  %21 = add i32 %20, -4
  %22 = tail call ptr @proto_tree_add_uint(ptr noundef %17, i32 noundef %19, ptr noundef %0, i32 noundef %21, i32 noundef 4, i32 noundef %18)
  %23 = load i32, ptr %3, align 4
  %24 = load i32, ptr @ett_giop_sequence, align 4
  %25 = tail call ptr @proto_tree_add_subtree(ptr noundef %17, ptr noundef %0, i32 noundef %23, i32 noundef -1, i32 noundef %24, ptr noundef null, ptr noundef nonnull @.str.849)
  %.not.i = icmp eq i32 %18, 0
  br i1 %.not.i, label %decode_GIAS_PackageElement_st.exit, label %.lr.ph.i

.lr.ph.i:                                         ; preds = %.lr.ph, %.lr.ph.i
  %.01.i = phi i32 [ %27, %.lr.ph.i ], [ 0, %.lr.ph ]
  %26 = load i32, ptr @hf_GIAS_PackageElement_files, align 4
  tail call void @giop_add_CDR_string(ptr noundef %25, ptr noundef %0, ptr noundef %3, i1 noundef zeroext %4, i32 noundef 12, i32 noundef %26)
  %27 = add nuw i32 %.01.i, 1
  %exitcond.not.i = icmp eq i32 %27, %18
  br i1 %exitcond.not.i, label %decode_GIAS_PackageElement_st.exit, label %.lr.ph.i, !llvm.loop !83

decode_GIAS_PackageElement_st.exit:               ; preds = %.lr.ph.i, %.lr.ph
  %28 = add nuw i32 %.01, 1
  %exitcond.not = icmp eq i32 %28, %7
  br i1 %exitcond.not, label %._crit_edge, label %.lr.ph, !llvm.loop !84

._crit_edge:                                      ; preds = %decode_GIAS_PackageElement_st.exit, %5
  ret void
}